target datalayout = "e-m:e-p270:32:32-p271:32:32-p272:64:64-i64:64-i128:128-f80:128-n8:16:32:64-S128"
target triple = "x86_64-pc-linux-gnu"

%"class.std::__cxx11::basic_string" = type { %"struct.std::__cxx11::basic_string<char>::_Alloc_hider", i64, %union.anon }
%"struct.std::__cxx11::basic_string<char>::_Alloc_hider" = type { ptr }
%union.anon = type { i64, [8 x i8] }
%"class.std::vector.47" = type { %"struct.std::_Vector_base.48" }
%"struct.std::_Vector_base.48" = type { %"struct.std::_Vector_base<int, std::allocator<int>>::_Vector_impl" }
%"struct.std::_Vector_base<int, std::allocator<int>>::_Vector_impl" = type { %"struct.std::_Vector_base<int, std::allocator<int>>::_Vector_impl_data" }
%"struct.std::_Vector_base<int, std::allocator<int>>::_Vector_impl_data" = type { ptr, ptr, ptr }
%"class.std::vector.52" = type { %"struct.std::_Vector_base.53" }
%"struct.std::_Vector_base.53" = type { %"struct.std::_Vector_base<std::__cxx11::basic_string<char>, std::allocator<std::__cxx11::basic_string<char>>>::_Vector_impl" }
%"struct.std::_Vector_base<std::__cxx11::basic_string<char>, std::allocator<std::__cxx11::basic_string<char>>>::_Vector_impl" = type { %"struct.std::_Vector_base<std::__cxx11::basic_string<char>, std::allocator<std::__cxx11::basic_string<char>>>::_Vector_impl_data" }
%"struct.std::_Vector_base<std::__cxx11::basic_string<char>, std::allocator<std::__cxx11::basic_string<char>>>::_Vector_impl_data" = type { ptr, ptr, ptr }
%"struct.std::_Rb_tree_header" = type { %"struct.std::_Rb_tree_node_base", i64 }
%"struct.std::_Rb_tree_node_base" = type { i32, ptr, ptr, ptr }
%"struct.std::__detail::_Hash_node_base" = type { ptr }
%"struct.std::__detail::_Prime_rehash_policy" = type { float, i64 }
%"struct.llama_vocab::impl" = type { i32, i32, i32, i32, i32, i32, i32, i32, i32, i32, i32, i32, i32, i32, i32, i32, i32, i32, i32, i8, i8, i8, i8, i8, i8, i8, i8, %"class.std::unordered_map.28", %"class.std::vector.42", %"class.std::vector.47", %"class.std::vector.52", %"class.std::unordered_map.57", %"class.std::set", %"class.std::unique_ptr.80", %"class.std::vector.88", ptr }
%"class.std::unordered_map.28" = type { %"class.std::_Hashtable.29" }
%"class.std::_Hashtable.29" = type { ptr, i64, %"struct.std::__detail::_Hash_node_base", i64, %"struct.std::__detail::_Prime_rehash_policy", ptr }
%"class.std::vector.42" = type { %"struct.std::_Vector_base.43" }
%"struct.std::_Vector_base.43" = type { %"struct.std::_Vector_base<llama_vocab::token_data, std::allocator<llama_vocab::token_data>>::_Vector_impl" }
%"struct.std::_Vector_base<llama_vocab::token_data, std::allocator<llama_vocab::token_data>>::_Vector_impl" = type { %"struct.std::_Vector_base<llama_vocab::token_data, std::allocator<llama_vocab::token_data>>::_Vector_impl_data" }
%"struct.std::_Vector_base<llama_vocab::token_data, std::allocator<llama_vocab::token_data>>::_Vector_impl_data" = type { ptr, ptr, ptr }
%"class.std::unordered_map.57" = type { %"class.std::_Hashtable.58" }
%"class.std::_Hashtable.58" = type { ptr, i64, %"struct.std::__detail::_Hash_node_base", i64, %"struct.std::__detail::_Prime_rehash_policy", ptr }
%"class.std::set" = type { %"class.std::_Rb_tree.75" }
%"class.std::_Rb_tree.75" = type { %"struct.std::_Rb_tree<int, int, std::_Identity<int>, std::less<int>>::_Rb_tree_impl" }
%"struct.std::_Rb_tree<int, int, std::_Identity<int>, std::less<int>>::_Rb_tree_impl" = type { [8 x i8], %"struct.std::_Rb_tree_header" }
%"class.std::unique_ptr.80" = type { %"struct.std::__uniq_ptr_data.81" }
%"struct.std::__uniq_ptr_data.81" = type { %"class.std::__uniq_ptr_impl.82" }
%"class.std::__uniq_ptr_impl.82" = type { %"class.std::tuple.83" }
%"class.std::tuple.83" = type { %"struct.std::_Tuple_impl.84" }
%"struct.std::_Tuple_impl.84" = type { %"struct.std::_Head_base.87" }
%"struct.std::_Head_base.87" = type { ptr }
%"class.std::vector.88" = type { %"struct.std::_Vector_base.89" }
%"struct.std::_Vector_base.89" = type { %"struct.std::_Vector_base<char, std::allocator<char>>::_Vector_impl" }
%"struct.std::_Vector_base<char, std::allocator<char>>::_Vector_impl" = type { %"struct.std::_Vector_base<char, std::allocator<char>>::_Vector_impl_data" }
%"struct.std::_Vector_base<char, std::allocator<char>>::_Vector_impl_data" = type { ptr, ptr, ptr }
%"struct.llama_vocab::token_data" = type { %"class.std::__cxx11::basic_string", float, i32 }

@.str.62 = private unnamed_addr constant [117 x i8] c"generated/home/dtcxzyw/WorkSpace/Projects/compilers/llvm-opt-benchmark/bench/llama.cpp/llama.cpp/src/llama-vocab.cpp\00", align 1
@.str.63 = private unnamed_addr constant [23 x i8] c"GGML_ASSERT(%s) failed\00", align 1
@.str.118 = private unnamed_addr constant [30 x i8] c"type != LLAMA_VOCAB_TYPE_NONE\00", align 1

; Function Attrs: mustprogress nounwind uwtable
define linkonce_odr noundef nonnull align 8 dereferenceable(40) ptr @_ZNKSt6vectorIN11llama_vocab10token_dataESaIS1_EEixEm(ptr noundef nonnull align 8 dereferenceable(24) %0, i64 noundef %1) #2 comdat align 2 {
  %3 = alloca ptr, align 8
  %4 = alloca i64, align 8
  store ptr %0, ptr %3, align 8, !tbaa !156
  store i64 %1, ptr %4, align 8, !tbaa !76
  %5 = load ptr, ptr %3, align 8
  %6 = getelementptr inbounds nuw %"struct.std::_Vector_base.43", ptr %5, i32 0, i32 0
  %7 = getelementptr inbounds nuw %"struct.std::_Vector_base<llama_vocab::token_data, std::allocator<llama_vocab::token_data>>::_Vector_impl_data", ptr %6, i32 0, i32 0
  %8 = load ptr, ptr %7, align 8, !tbaa !158
  %9 = load i64, ptr %4, align 8, !tbaa !76
  %10 = getelementptr inbounds nuw %"struct.llama_vocab::token_data", ptr %8, i64 %9
  ret ptr %10
}

; Function Attrs: mustprogress uwtable
define noundef zeroext i1 @_ZNK11llama_vocab4impl9is_normalEi(ptr noundef nonnull align 8 dereferenceable(360) %0, i32 noundef %1) #0 align 2 {
  %3 = alloca ptr, align 8
  %4 = alloca i32, align 4
  store ptr %0, ptr %3, align 8, !tbaa !3
  store i32 %1, ptr %4, align 4, !tbaa !75
  %5 = load ptr, ptr %3, align 8
  %6 = getelementptr inbounds nuw %"struct.llama_vocab::impl", ptr %5, i32 0, i32 1
  %7 = load i32, ptr %6, align 4, !tbaa !14
  %8 = icmp ne i32 %7, 0
  br i1 %8, label %10, label %9

9:                                                ; preds = %2
  call void (ptr, i32, ptr, ...) @ggml_abort(ptr noundef @.str.62, i32 noundef 2060, ptr noundef @.str.63, ptr noundef @.str.118) #20
  unreachable

10:                                               ; preds = %2
  %11 = getelementptr inbounds nuw %"struct.llama_vocab::impl", ptr %5, i32 0, i32 28
  %12 = load i32, ptr %4, align 4, !tbaa !75
  %13 = sext i32 %12 to i64
  %14 = call noundef nonnull align 8 dereferenceable(40) ptr @_ZNKSt6vectorIN11llama_vocab10token_dataESaIS1_EEixEm(ptr noundef nonnull align 8 dereferenceable(24) %11, i64 noundef %13) #19
  %15 = getelementptr inbounds nuw %"struct.llama_vocab::token_data", ptr %14, i32 0, i32 2
  %16 = load i32, ptr %15, align 4, !tbaa !97
  %17 = and i32 %16, 4
  %18 = icmp ne i32 %17, 0
  ret i1 %18
}